; Function Attrs: null_pointer_is_valid sspstrong uwtable
define internal noundef i32 @cigi3_add_rate_control(ptr noundef %0, ptr readnone captures(none) %1, ptr noundef %2, ptr readnone captures(none) %3) #0 {
  %5 = load i32, ptr @hf_cigi3_rate_control_entity_id, align 4
  %.b47 = load i1, ptr @cigi_byte_order, align 4
  %6 = select i1 %.b47, i32 -2147483648, i32 0
  %7 = tail call ptr @proto_tree_add_item(ptr noundef %2, i32 noundef %5, ptr noundef %0, i32 noundef 0, i32 noundef 2, i32 noundef %6)
  %8 = load i32, ptr @hf_cigi3_rate_control_part_id, align 4
  %.b46 = load i1, ptr @cigi_byte_order, align 4
  %9 = select i1 %.b46, i32 -2147483648, i32 0
  %10 = tail call ptr @proto_tree_add_item(ptr noundef %2, i32 noundef %8, ptr noundef %0, i32 noundef 2, i32 noundef 1, i32 noundef %9)
  %11 = load i32, ptr @hf_cigi3_rate_control_apply_to_part, align 4
  %.b45 = load i1, ptr @cigi_byte_order, align 4
  %12 = select i1 %.b45, i32 -2147483648, i32 0
  %13 = tail call ptr @proto_tree_add_item(ptr noundef %2, i32 noundef %11, ptr noundef %0, i32 noundef 3, i32 noundef 1, i32 noundef %12)
  %14 = load i32, ptr @cigi_minor_version, align 4
  %15 = icmp sgt i32 %14, 1
  br i1 %15, label %16, label %20

16:                                               ; preds = %4
  %17 = load i32, ptr @hf_cigi3_2_rate_control_coordinate_system, align 4
  %.b44 = load i1, ptr @cigi_byte_order, align 4
  %18 = select i1 %.b44, i32 -2147483648, i32 0
  %19 = tail call ptr @proto_tree_add_item(ptr noundef %2, i32 noundef %17, ptr noundef %0, i32 noundef 3, i32 noundef 1, i32 noundef %18)
  br label %20

20:                                               ; preds = %16, %4
  %21 = load i32, ptr @hf_cigi3_rate_control_x_rate, align 4
  %.b43 = load i1, ptr @cigi_byte_order, align 4
  %22 = select i1 %.b43, i32 -2147483648, i32 0
  %23 = tail call ptr @proto_tree_add_item(ptr noundef %2, i32 noundef %21, ptr noundef %0, i32 noundef 6, i32 noundef 4, i32 noundef %22)
  %24 = load i32, ptr @hf_cigi3_rate_control_y_rate, align 4
  %.b42 = load i1, ptr @cigi_byte_order, align 4
  %25 = select i1 %.b42, i32 -2147483648, i32 0
  %26 = tail call ptr @proto_tree_add_item(ptr noundef %2, i32 noundef %24, ptr noundef %0, i32 noundef 10, i32 noundef 4, i32 noundef %25)
  %27 = load i32, ptr @hf_cigi3_rate_control_z_rate, align 4
  %.b41 = load i1, ptr @cigi_byte_order, align 4
  %28 = select i1 %.b41, i32 -2147483648, i32 0
  %29 = tail call ptr @proto_tree_add_item(ptr noundef %2, i32 noundef %27, ptr noundef %0, i32 noundef 14, i32 noundef 4, i32 noundef %28)
  %30 = load i32, ptr @hf_cigi3_rate_control_roll_rate, align 4
  %.b40 = load i1, ptr @cigi_byte_order, align 4
  %31 = select i1 %.b40, i32 -2147483648, i32 0
  %32 = tail call ptr @proto_tree_add_item(ptr noundef %2, i32 noundef %30, ptr noundef %0, i32 noundef 18, i32 noundef 4, i32 noundef %31)
  %33 = load i32, ptr @hf_cigi3_rate_control_pitch_rate, align 4
  %.b39 = load i1, ptr @cigi_byte_order, align 4
  %34 = select i1 %.b39, i32 -2147483648, i32 0
  %35 = tail call ptr @proto_tree_add_item(ptr noundef %2, i32 noundef %33, ptr noundef %0, i32 noundef 22, i32 noundef 4, i32 noundef %34)
  %36 = load i32, ptr @hf_cigi3_rate_control_yaw_rate, align 4
  %.b = load i1, ptr @cigi_byte_order, align 4
  %37 = select i1 %.b, i32 -2147483648, i32 0
  %38 = tail call ptr @proto_tree_add_item(ptr noundef %2, i32 noundef %36, ptr noundef %0, i32 noundef 26, i32 noundef 4, i32 noundef %37)
  ret i32 30
}